; Function Attrs: mustprogress uwtable
define hidden noundef zeroext i1 @_ZNK6google8protobuf8internal11AnyMetadata8UnpackToEPNS0_7MessageE(ptr noundef nonnull align 8 dereferenceable(16) %0, ptr noundef %1) local_unnamed_addr #3 align 2 {
  %3 = load ptr, ptr %1, align 8, !tbaa !10
  %4 = getelementptr inbounds nuw i8, ptr %3, i64 136
  %5 = load ptr, ptr %4, align 8
  %6 = tail call { ptr, ptr } %5(ptr noundef nonnull align 8 dereferenceable(16) %1)
  %7 = extractvalue { ptr, ptr } %6, 0
  %8 = getelementptr inbounds nuw i8, ptr %7, i64 8
  %9 = load ptr, ptr %8, align 8, !tbaa !12
  %10 = getelementptr inbounds nuw i8, ptr %9, i64 32
  %11 = load ptr, ptr %10, align 8, !tbaa !29
  %12 = getelementptr inbounds nuw i8, ptr %9, i64 40
  %13 = load i64, ptr %12, align 8, !tbaa !34
  %14 = tail call noundef zeroext i1 @_ZNK6google8protobuf8internal11AnyMetadata10InternalIsENS0_20stringpiece_internal11StringPieceE(ptr noundef nonnull align 8 dereferenceable(16) %0, ptr %11, i64 %13)
  br i1 %14, label %15, label %23

15:                                               ; preds = %2
  %16 = getelementptr inbounds nuw i8, ptr %0, i64 8
  %17 = load ptr, ptr %16, align 8, !tbaa !35
  %18 = load ptr, ptr %17, align 8, !tbaa !36
  %19 = ptrtoint ptr %18 to i64
  %20 = and i64 %19, -2
  %21 = inttoptr i64 %20 to ptr
  %22 = tail call noundef zeroext i1 @_ZN6google8protobuf11MessageLite15ParseFromStringERKNSt7__cxx1112basic_stringIcSt11char_traitsIcESaIcEEE(ptr noundef nonnull align 8 dereferenceable(16) %1, ptr noundef nonnull align 8 dereferenceable(32) %21)
  br label %23

23:                                               ; preds = %2, %15
  %.0 = phi i1 [ %22, %15 ], [ false, %2 ]
  ret i1 %.0
}